target datalayout = "e-m:e-p270:32:32-p271:32:32-p272:64:64-i64:64-i128:128-f80:128-n8:16:32:64-S128"
target triple = "x86_64-pc-linux-gnu"

%struct.DitherContext = type { ptr, i64, double, float, [8 x [16 x float]], [8 x [16 x float]], [8 x i32], i32, i32 }

@FLAC__replaygain_synthesis__init_dither_context.default_dither = internal global [10 x i8] c"\\\\XTQNJC\00\00", align 1
@FLAC__replaygain_synthesis__init_dither_context.F = internal global [4 x ptr] [ptr @F44_0, ptr @F44_1, ptr @F44_2, ptr @F44_3], align 16

; Function Attrs: alwaysinline nounwind
define internal ptr @memset.inline(ptr nonnull %0, i32 %1, i64 %2) #2 {
  %4 = alloca ptr, align 8
  %5 = alloca i32, align 4
  %6 = alloca i64, align 8
  store ptr %0, ptr %4, align 8, !tbaa !4
  store i32 %1, ptr %5, align 4, !tbaa !8
  store i64 %2, ptr %6, align 8, !tbaa !23
  %7 = load ptr, ptr %4, align 8, !tbaa !4
  %8 = load i32, ptr %5, align 4, !tbaa !8
  %9 = load i64, ptr %6, align 8, !tbaa !23
  %10 = load ptr, ptr %4, align 8, !tbaa !4
  %11 = call i64 @llvm.objectsize.i64.p0(ptr %10, i1 false, i1 true, i1 false)
  %12 = call ptr @__memset_chk(ptr noundef %7, i32 noundef %8, i64 noundef %9, i64 noundef %11) #6
  ret ptr %12
}

; Function Attrs: nounwind sspstrong uwtable
define dso_local void @FLAC__replaygain_synthesis__init_dither_context(ptr noundef %0, i32 noundef %1, i32 noundef %2) #0 {
  %4 = alloca ptr, align 8
  %5 = alloca i32, align 4
  %6 = alloca i32, align 4
  %7 = alloca i32, align 4
  store ptr %0, ptr %4, align 8, !tbaa !4
  store i32 %1, ptr %5, align 4, !tbaa !8
  store i32 %2, ptr %6, align 4, !tbaa !8
  call void @llvm.lifetime.start.p0(i64 4, ptr %7) #6
  %8 = load i32, ptr %6, align 4, !tbaa !8
  %9 = icmp slt i32 %8, 0
  br i1 %9, label %10, label %11

10:                                               ; preds = %3
  store i32 0, ptr %6, align 4, !tbaa !8
  br label %11

11:                                               ; preds = %10, %3
  %12 = load i32, ptr %6, align 4, !tbaa !8
  %13 = icmp sgt i32 %12, 3
  br i1 %13, label %14, label %15

14:                                               ; preds = %11
  store i32 3, ptr %6, align 4, !tbaa !8
  br label %15

15:                                               ; preds = %14, %11
  %16 = load i32, ptr %6, align 4, !tbaa !8
  %17 = load ptr, ptr %4, align 8, !tbaa !4
  %18 = getelementptr inbounds nuw %struct.DitherContext, ptr %17, i32 0, i32 8
  store i32 %16, ptr %18, align 8, !tbaa !10
  %19 = load i32, ptr %5, align 4, !tbaa !8
  %20 = sub nsw i32 %19, 11
  %21 = load i32, ptr %6, align 4, !tbaa !8
  %22 = sub nsw i32 %20, %21
  store i32 %22, ptr %7, align 4, !tbaa !8
  %23 = load i32, ptr %7, align 4, !tbaa !8
  %24 = icmp slt i32 %23, 0
  br i1 %24, label %25, label %26

25:                                               ; preds = %15
  store i32 0, ptr %7, align 4, !tbaa !8
  br label %26

26:                                               ; preds = %25, %15
  %27 = load i32, ptr %7, align 4, !tbaa !8
  %28 = icmp sgt i32 %27, 9
  br i1 %28, label %29, label %30

29:                                               ; preds = %26
  store i32 9, ptr %7, align 4, !tbaa !8
  br label %30

30:                                               ; preds = %29, %26
  %31 = load ptr, ptr %4, align 8, !tbaa !4
  %32 = getelementptr inbounds nuw %struct.DitherContext, ptr %31, i32 0, i32 4
  %33 = getelementptr inbounds [8 x [16 x float]], ptr %32, i64 0, i64 0
  %34 = call ptr @memset.inline(ptr noundef %33, i32 noundef 0, i64 noundef 512) #6
  %35 = load ptr, ptr %4, align 8, !tbaa !4
  %36 = getelementptr inbounds nuw %struct.DitherContext, ptr %35, i32 0, i32 5
  %37 = getelementptr inbounds [8 x [16 x float]], ptr %36, i64 0, i64 0
  %38 = call ptr @memset.inline(ptr noundef %37, i32 noundef 0, i64 noundef 512) #6
  %39 = load i32, ptr %6, align 4, !tbaa !8
  %40 = sext i32 %39 to i64
  %41 = getelementptr inbounds [4 x ptr], ptr @FLAC__replaygain_synthesis__init_dither_context.F, i64 0, i64 %40
  %42 = load ptr, ptr %41, align 8, !tbaa !16
  %43 = load ptr, ptr %4, align 8, !tbaa !4
  %44 = getelementptr inbounds nuw %struct.DitherContext, ptr %43, i32 0, i32 0
  store ptr %42, ptr %44, align 8, !tbaa !17
  %45 = load i32, ptr %5, align 4, !tbaa !8
  %46 = sub nsw i32 32, %45
  %47 = zext i32 %46 to i64
  %48 = shl i64 -1, %47
  %49 = load ptr, ptr %4, align 8, !tbaa !4
  %50 = getelementptr inbounds nuw %struct.DitherContext, ptr %49, i32 0, i32 1
  store i64 %48, ptr %50, align 8, !tbaa !18
  %51 = load i32, ptr %5, align 4, !tbaa !8
  %52 = sub nsw i32 32, %51
  %53 = zext i32 %52 to i64
  %54 = shl i64 1, %53
  %55 = sub nsw i64 %54, 1
  %56 = sitofp i64 %55 to double
  %57 = fmul double 5.000000e-01, %56
  %58 = load ptr, ptr %4, align 8, !tbaa !4
  %59 = getelementptr inbounds nuw %struct.DitherContext, ptr %58, i32 0, i32 2
  store double %57, ptr %59, align 8, !tbaa !19
  %60 = load i32, ptr %7, align 4, !tbaa !8
  %61 = sext i32 %60 to i64
  %62 = getelementptr inbounds [10 x i8], ptr @FLAC__replaygain_synthesis__init_dither_context.default_dither, i64 0, i64 %61
  %63 = load i8, ptr %62, align 1, !tbaa !20
  %64 = zext i8 %63 to i32
  %65 = sitofp i32 %64 to float
  %66 = fmul float 0x3F847AE140000000, %65
  %67 = load i32, ptr %5, align 4, !tbaa !8
  %68 = zext i32 %67 to i64
  %69 = shl i64 1, %68
  %70 = sitofp i64 %69 to float
  %71 = fdiv float %66, %70
  %72 = load ptr, ptr %4, align 8, !tbaa !4
  %73 = getelementptr inbounds nuw %struct.DitherContext, ptr %72, i32 0, i32 3
  store float %71, ptr %73, align 8, !tbaa !21
  %74 = load ptr, ptr %4, align 8, !tbaa !4
  %75 = getelementptr inbounds nuw %struct.DitherContext, ptr %74, i32 0, i32 7
  store i32 0, ptr %75, align 4, !tbaa !22
  call void @llvm.lifetime.end.p0(i64 4, ptr %7) #6
  ret void
}