; Function Attrs: nofree nounwind sspstrong memory(argmem: readwrite) uwtable
define dso_local void @FLAC__replaygain_synthesis__init_dither_context(ptr noundef initializes((1088, 1092)) %0, i32 noundef %1, i32 noundef %2) local_unnamed_addr #0 {
  %spec.store.select = tail call i32 @llvm.smax.i32(i32 %2, i32 0)
  %spec.store.select2 = tail call i32 @llvm.umin.i32(i32 %spec.store.select, i32 3)
  %4 = getelementptr inbounds nuw i8, ptr %0, i64 1088
  store i32 %spec.store.select2, ptr %4, align 8, !tbaa !4
  %5 = add nsw i32 %1, -11
  %6 = sub i32 %5, %spec.store.select2
  %spec.store.select1 = tail call i32 @llvm.smax.i32(i32 %6, i32 0)
  %spec.store.select3 = tail call i32 @llvm.umin.i32(i32 %spec.store.select1, i32 9)
  %7 = getelementptr inbounds nuw i8, ptr %0, i64 28
  tail call void @llvm.memset.p0.i64(ptr noundef nonnull align 1 dereferenceable(512) %7, i8 noundef 0, i64 noundef 512, i1 noundef false) #6
  %8 = getelementptr inbounds nuw i8, ptr %0, i64 540
  tail call void @llvm.memset.p0.i64(ptr noundef nonnull align 1 dereferenceable(512) %8, i8 noundef 0, i64 noundef 512, i1 noundef false) #6
  %9 = zext nneg i32 %spec.store.select2 to i64
  %10 = getelementptr inbounds nuw [4 x ptr], ptr @FLAC__replaygain_synthesis__init_dither_context.F, i64 0, i64 %9
  %11 = load ptr, ptr %10, align 8, !tbaa !14
  store ptr %11, ptr %0, align 8, !tbaa !15
  %12 = sub nsw i32 32, %1
  %13 = zext nneg i32 %12 to i64
  %14 = shl nsw i64 -1, %13
  %15 = getelementptr inbounds nuw i8, ptr %0, i64 8
  store i64 %14, ptr %15, align 8, !tbaa !16
  %16 = xor i64 %14, -1
  %17 = uitofp nneg i64 %16 to double
  %18 = fmul double %17, 5.000000e-01
  %19 = getelementptr inbounds nuw i8, ptr %0, i64 16
  store double %18, ptr %19, align 8, !tbaa !17
  %20 = zext nneg i32 %spec.store.select3 to i64
  %21 = getelementptr inbounds nuw [10 x i8], ptr @FLAC__replaygain_synthesis__init_dither_context.default_dither, i64 0, i64 %20
  %22 = load i8, ptr %21, align 1, !tbaa !18
  %23 = uitofp i8 %22 to float
  %24 = fmul float %23, 0x3F847AE140000000
  %25 = zext nneg i32 %1 to i64
  %26 = shl nuw i64 1, %25
  %27 = sitofp i64 %26 to float
  %28 = fdiv float %24, %27
  %29 = getelementptr inbounds nuw i8, ptr %0, i64 24
  store float %28, ptr %29, align 8, !tbaa !19
  %30 = getelementptr inbounds nuw i8, ptr %0, i64 1084
  store i32 0, ptr %30, align 4, !tbaa !20
  ret void
}